target datalayout = "e-m:e-p270:32:32-p271:32:32-p272:64:64-i64:64-i128:128-f80:128-n8:16:32:64-S128"
target triple = "x86_64-pc-linux-gnu"

%"class.xgboost::LogCallbackRegistry" = type { ptr }
%"class.std::__cxx11::basic_string" = type { %"struct.std::__cxx11::basic_string<char>::_Alloc_hider", i64, %union.anon }
%"struct.std::__cxx11::basic_string<char>::_Alloc_hider" = type { ptr }
%union.anon = type { i64, [8 x i8] }
%class.anon = type { i8 }

@_ZZN4dmlc16ThreadLocalStoreIN7xgboost19LogCallbackRegistryEE3GetEvE4inst = linkonce_odr thread_local global %"class.xgboost::LogCallbackRegistry" zeroinitializer, comdat, align 8
@_ZGVZN4dmlc16ThreadLocalStoreIN7xgboost19LogCallbackRegistryEE3GetEvE4inst = linkonce_odr thread_local global i64 0, comdat, align 8

; Function Attrs: inlinehint mustprogress nounwind uwtable
define linkonce_odr noundef ptr @_ZZN7xgboost19LogCallbackRegistryC1EvENKUlPKcE_cvPFvS2_EEv(ptr noundef nonnull align 1 dereferenceable(1) %0) #6 comdat align 2 {
  %2 = alloca ptr, align 8
  store ptr %0, ptr %2, align 8, !tbaa !10
  ret ptr @_ZZN7xgboost19LogCallbackRegistryC1EvENUlPKcE_8__invokeES2_
}

; Function Attrs: mustprogress nounwind uwtable
define available_externally noundef ptr @_ZNKSt7__cxx1112basic_stringIcSt11char_traitsIcESaIcEE7_M_dataEv(ptr noundef nonnull align 8 dereferenceable(32) %0) #7 align 2 {
  %2 = alloca ptr, align 8
  store ptr %0, ptr %2, align 8, !tbaa !3
  %3 = load ptr, ptr %2, align 8
  %4 = getelementptr inbounds nuw %"class.std::__cxx11::basic_string", ptr %3, i32 0, i32 0
  %5 = getelementptr inbounds nuw %"struct.std::__cxx11::basic_string<char>::_Alloc_hider", ptr %4, i32 0, i32 0
  %6 = load ptr, ptr %5, align 8, !tbaa !113
  ret ptr %6
}

; Function Attrs: mustprogress nounwind uwtable
define linkonce_odr void @_ZN7xgboost19LogCallbackRegistryC2Ev(ptr noundef nonnull align 8 dereferenceable(8) %0) unnamed_addr #7 comdat align 2 {
  %2 = alloca ptr, align 8
  %3 = alloca %class.anon, align 1
  store ptr %0, ptr %2, align 8, !tbaa !8
  %4 = load ptr, ptr %2, align 8
  %5 = getelementptr inbounds nuw %"class.xgboost::LogCallbackRegistry", ptr %4, i32 0, i32 0
  call void @llvm.lifetime.start.p0(i64 1, ptr %3) #3
  %6 = call noundef ptr @_ZZN7xgboost19LogCallbackRegistryC1EvENKUlPKcE_cvPFvS2_EEv(ptr noundef nonnull align 1 dereferenceable(1) %3) #3
  call void @llvm.lifetime.end.p0(i64 1, ptr %3) #3
  store ptr %6, ptr %5, align 8, !tbaa !12
  ret void
}

; Function Attrs: mustprogress nounwind uwtable
define available_externally noundef ptr @_ZNKSt7__cxx1112basic_stringIcSt11char_traitsIcESaIcEE5c_strEv(ptr noundef nonnull align 8 dereferenceable(32) %0) #7 align 2 {
  %2 = alloca ptr, align 8
  store ptr %0, ptr %2, align 8, !tbaa !3
  %3 = load ptr, ptr %2, align 8
  %4 = call noundef ptr @_ZNKSt7__cxx1112basic_stringIcSt11char_traitsIcESaIcEE7_M_dataEv(ptr noundef nonnull align 8 dereferenceable(32) %3)
  ret ptr %4
}

; Function Attrs: inlinehint mustprogress nounwind uwtable
define linkonce_odr noundef ptr @_ZNK7xgboost19LogCallbackRegistry3GetEv(ptr noundef nonnull align 8 dereferenceable(8) %0) #6 comdat align 2 {
  %2 = alloca ptr, align 8
  store ptr %0, ptr %2, align 8, !tbaa !8
  %3 = load ptr, ptr %2, align 8
  %4 = getelementptr inbounds nuw %"class.xgboost::LogCallbackRegistry", ptr %3, i32 0, i32 0
  %5 = load ptr, ptr %4, align 8, !tbaa !12
  ret ptr %5
}

; Function Attrs: mustprogress uwtable
define linkonce_odr noundef ptr @_ZN4dmlc16ThreadLocalStoreIN7xgboost19LogCallbackRegistryEE3GetEv() #4 comdat align 2 {
  %1 = load i8, ptr @_ZGVZN4dmlc16ThreadLocalStoreIN7xgboost19LogCallbackRegistryEE3GetEvE4inst, align 8
  %2 = icmp eq i8 %1, 0
  br i1 %2, label %3, label %4, !prof !11

3:                                                ; preds = %0
  call void @_ZN7xgboost19LogCallbackRegistryC2Ev(ptr noundef nonnull align 8 dereferenceable(8) @_ZZN4dmlc16ThreadLocalStoreIN7xgboost19LogCallbackRegistryEE3GetEvE4inst)
  store i8 1, ptr @_ZGVZN4dmlc16ThreadLocalStoreIN7xgboost19LogCallbackRegistryEE3GetEvE4inst, align 8
  br label %4

4:                                                ; preds = %3, %0
  %5 = call align 8 ptr @llvm.threadlocal.address.p0(ptr align 8 @_ZZN4dmlc16ThreadLocalStoreIN7xgboost19LogCallbackRegistryEE3GetEvE4inst)
  ret ptr %5
}

; Function Attrs: mustprogress uwtable
define void @_ZN4dmlc16CustomLogMessage3LogERKNSt7__cxx1112basic_stringIcSt11char_traitsIcESaIcEEE(ptr noundef nonnull align 8 dereferenceable(32) %0) #4 align 2 {
  %2 = alloca ptr, align 8
  %3 = alloca ptr, align 8
  %4 = alloca ptr, align 8
  store ptr %0, ptr %2, align 8, !tbaa !3
  call void @llvm.lifetime.start.p0(i64 8, ptr %3) #3
  %5 = call noundef ptr @_ZN4dmlc16ThreadLocalStoreIN7xgboost19LogCallbackRegistryEE3GetEv()
  store ptr %5, ptr %3, align 8, !tbaa !8
  call void @llvm.lifetime.start.p0(i64 8, ptr %4) #3
  %6 = load ptr, ptr %3, align 8, !tbaa !8
  %7 = call noundef ptr @_ZNK7xgboost19LogCallbackRegistry3GetEv(ptr noundef nonnull align 8 dereferenceable(8) %6)
  store ptr %7, ptr %4, align 8, !tbaa !10
  %8 = load ptr, ptr %4, align 8, !tbaa !10
  %9 = load ptr, ptr %2, align 8, !tbaa !3
  %10 = call noundef ptr @_ZNKSt7__cxx1112basic_stringIcSt11char_traitsIcESaIcEE5c_strEv(ptr noundef nonnull align 8 dereferenceable(32) %9) #3
  call void %8(ptr noundef %10)
  call void @llvm.lifetime.end.p0(i64 8, ptr %4) #3
  call void @llvm.lifetime.end.p0(i64 8, ptr %3) #3
  ret void
}