; Function Attrs: mustprogress uwtable
define void @_ZN4dmlc16CustomLogMessage3LogERKNSt7__cxx1112basic_stringIcSt11char_traitsIcESaIcEEE(ptr noundef nonnull readonly align 8 captures(none) dereferenceable(32) %0) local_unnamed_addr #3 align 2 {
  %2 = load i8, ptr @_ZGVZN4dmlc16ThreadLocalStoreIN7xgboost19LogCallbackRegistryEE3GetEvE4inst, align 8
  %3 = icmp eq i8 %2, 0
  br i1 %3, label %4, label %_ZN4dmlc16ThreadLocalStoreIN7xgboost19LogCallbackRegistryEE3GetEv.exit, !prof !3

4:                                                ; preds = %1
  store ptr @_ZZN7xgboost19LogCallbackRegistryC1EvENUlPKcE_8__invokeES2_, ptr @_ZZN4dmlc16ThreadLocalStoreIN7xgboost19LogCallbackRegistryEE3GetEvE4inst, align 8, !tbaa !4
  store i8 1, ptr @_ZGVZN4dmlc16ThreadLocalStoreIN7xgboost19LogCallbackRegistryEE3GetEvE4inst, align 8
  br label %_ZN4dmlc16ThreadLocalStoreIN7xgboost19LogCallbackRegistryEE3GetEv.exit

_ZN4dmlc16ThreadLocalStoreIN7xgboost19LogCallbackRegistryEE3GetEv.exit: ; preds = %1, %4
  %5 = tail call noundef align 8 ptr @llvm.threadlocal.address.p0(ptr align 8 @_ZZN4dmlc16ThreadLocalStoreIN7xgboost19LogCallbackRegistryEE3GetEvE4inst)
  %6 = load ptr, ptr %5, align 8, !tbaa !4
  %7 = load ptr, ptr %0, align 8, !tbaa !9
  tail call void %6(ptr noundef %7)
  ret void
}